target datalayout = "e-m:e-p270:32:32-p271:32:32-p272:64:64-i64:64-i128:128-f80:128-n8:16:32:64-S128"
target triple = "x86_64-pc-linux-gnu"

%struct.Gia_Obj_t_ = type <{ i64, i32 }>
%struct.Gia_Man_t_ = type { ptr, ptr, i32, i32, i32, i32, ptr, ptr, i32, i32, i32, ptr, ptr, %struct.Vec_Int_t_, %struct.Vec_Int_t_, i32, i32, i32, %struct.Vec_Int_t_, ptr, ptr, ptr, i32, i32, i32, i32, ptr, ptr, ptr, ptr, ptr, i32, i32, ptr, i32, ptr, ptr, ptr, ptr, ptr, ptr, ptr, ptr, ptr, ptr, ptr, ptr, ptr, ptr, ptr, ptr, ptr, ptr, %struct.Vec_Int_t_, %struct.Vec_Int_t_, ptr, ptr, ptr, ptr, ptr, ptr, ptr, ptr, ptr, ptr, ptr, ptr, ptr, ptr, ptr, ptr, ptr, ptr, ptr, ptr, ptr, i32, float, float, ptr, ptr, i32, ptr, ptr, ptr, ptr, ptr, ptr, ptr, ptr, ptr, ptr, ptr, ptr, ptr, ptr, ptr, i64, i64, ptr, ptr, i32, i32, i32, i32, i32, i32, i32, i32, i32, i32, i32, i32, ptr, ptr, ptr, ptr, ptr, ptr, ptr, ptr, i32, i32, i32, ptr, i32, i32, ptr, ptr, ptr, ptr, ptr, ptr, i32, i32, ptr, %struct.Vec_Int_t_, %struct.Vec_Int_t_, %struct.Vec_Int_t_, ptr, ptr, ptr, i32, i32, i32, i32, ptr, ptr, ptr, ptr, ptr }
%struct.Vec_Int_t_ = type { i32, i32, ptr }

; Function Attrs: inlinehint nounwind uwtable
define internal i32 @Gia_ObjFaninC1(ptr noundef %0) #2 {
  %2 = alloca ptr, align 8
  store ptr %0, ptr %2, align 8, !tbaa !12
  %3 = load ptr, ptr %2, align 8, !tbaa !12
  %4 = load i64, ptr %3, align 4
  %5 = lshr i64 %4, 61
  %6 = and i64 %5, 1
  %7 = trunc i64 %6 to i32
  ret i32 %7
}

; Function Attrs: inlinehint nounwind uwtable
define internal ptr @Gia_ObjFanin1(ptr noundef %0) #2 {
  %2 = alloca ptr, align 8
  store ptr %0, ptr %2, align 8, !tbaa !12
  %3 = load ptr, ptr %2, align 8, !tbaa !12
  %4 = load ptr, ptr %2, align 8, !tbaa !12
  %5 = load i64, ptr %4, align 4
  %6 = lshr i64 %5, 32
  %7 = and i64 %6, 536870911
  %8 = trunc i64 %7 to i32
  %9 = sext i32 %8 to i64
  %10 = sub i64 0, %9
  %11 = getelementptr inbounds %struct.Gia_Obj_t_, ptr %3, i64 %10
  ret ptr %11
}

; Function Attrs: inlinehint nounwind uwtable
define internal i32 @Abc_LitNotCond(i32 noundef %0, i32 noundef %1) #2 {
  %3 = alloca i32, align 4
  %4 = alloca i32, align 4
  store i32 %0, ptr %3, align 4, !tbaa !10
  store i32 %1, ptr %4, align 4, !tbaa !10
  %5 = load i32, ptr %3, align 4, !tbaa !10
  %6 = load i32, ptr %4, align 4, !tbaa !10
  %7 = icmp sgt i32 %6, 0
  %8 = zext i1 %7 to i32
  %9 = xor i32 %5, %8
  ret i32 %9
}

; Function Attrs: inlinehint nounwind uwtable
define internal i32 @Gia_ObjFaninC0(ptr noundef %0) #2 {
  %2 = alloca ptr, align 8
  store ptr %0, ptr %2, align 8, !tbaa !12
  %3 = load ptr, ptr %2, align 8, !tbaa !12
  %4 = load i64, ptr %3, align 4
  %5 = lshr i64 %4, 29
  %6 = and i64 %5, 1
  %7 = trunc i64 %6 to i32
  ret i32 %7
}

; Function Attrs: inlinehint nounwind uwtable
define internal ptr @Gia_ObjFanin0(ptr noundef %0) #2 {
  %2 = alloca ptr, align 8
  store ptr %0, ptr %2, align 8, !tbaa !12
  %3 = load ptr, ptr %2, align 8, !tbaa !12
  %4 = load ptr, ptr %2, align 8, !tbaa !12
  %5 = load i64, ptr %4, align 4
  %6 = and i64 %5, 536870911
  %7 = trunc i64 %6 to i32
  %8 = sext i32 %7 to i64
  %9 = sub i64 0, %8
  %10 = getelementptr inbounds %struct.Gia_Obj_t_, ptr %3, i64 %9
  ret ptr %10
}

; Function Attrs: inlinehint nounwind uwtable
define internal i32 @Gia_ManRegNum(ptr noundef %0) #2 {
  %2 = alloca ptr, align 8
  store ptr %0, ptr %2, align 8, !tbaa !3
  %3 = load ptr, ptr %2, align 8, !tbaa !3
  %4 = getelementptr inbounds nuw %struct.Gia_Man_t_, ptr %3, i32 0, i32 2
  %5 = load i32, ptr %4, align 8, !tbaa !51
  ret i32 %5
}

; Function Attrs: inlinehint nounwind uwtable
define internal i32 @Gia_ObjIsCo(ptr noundef %0) #2 {
  %2 = alloca ptr, align 8
  store ptr %0, ptr %2, align 8, !tbaa !12
  %3 = load ptr, ptr %2, align 8, !tbaa !12
  %4 = load i64, ptr %3, align 4
  %5 = lshr i64 %4, 31
  %6 = and i64 %5, 1
  %7 = trunc i64 %6 to i32
  %8 = icmp ne i32 %7, 0
  br i1 %8, label %9, label %15

9:                                                ; preds = %1
  %10 = load ptr, ptr %2, align 8, !tbaa !12
  %11 = load i64, ptr %10, align 4
  %12 = and i64 %11, 536870911
  %13 = trunc i64 %12 to i32
  %14 = icmp ne i32 %13, 536870911
  br label %15

15:                                               ; preds = %9, %1
  %16 = phi i1 [ false, %1 ], [ %14, %9 ]
  %17 = zext i1 %16 to i32
  ret i32 %17
}

; Function Attrs: inlinehint nounwind uwtable
define internal i32 @Gia_ObjIsCi(ptr noundef %0) #2 {
  %2 = alloca ptr, align 8
  store ptr %0, ptr %2, align 8, !tbaa !12
  %3 = load ptr, ptr %2, align 8, !tbaa !12
  %4 = load i64, ptr %3, align 4
  %5 = lshr i64 %4, 31
  %6 = and i64 %5, 1
  %7 = trunc i64 %6 to i32
  %8 = icmp ne i32 %7, 0
  br i1 %8, label %9, label %15

9:                                                ; preds = %1
  %10 = load ptr, ptr %2, align 8, !tbaa !12
  %11 = load i64, ptr %10, align 4
  %12 = and i64 %11, 536870911
  %13 = trunc i64 %12 to i32
  %14 = icmp eq i32 %13, 536870911
  br label %15

15:                                               ; preds = %9, %1
  %16 = phi i1 [ false, %1 ], [ %14, %9 ]
  %17 = zext i1 %16 to i32
  ret i32 %17
}

; Function Attrs: inlinehint nounwind uwtable
define internal i32 @Gia_ObjFanin1Copy(ptr noundef %0) #2 {
  %2 = alloca ptr, align 8
  store ptr %0, ptr %2, align 8, !tbaa !12
  %3 = load ptr, ptr %2, align 8, !tbaa !12
  %4 = call ptr @Gia_ObjFanin1(ptr noundef %3)
  %5 = getelementptr inbounds nuw %struct.Gia_Obj_t_, ptr %4, i32 0, i32 1
  %6 = load i32, ptr %5, align 4, !tbaa !14
  %7 = load ptr, ptr %2, align 8, !tbaa !12
  %8 = call i32 @Gia_ObjFaninC1(ptr noundef %7)
  %9 = call i32 @Abc_LitNotCond(i32 noundef %6, i32 noundef %8)
  ret i32 %9
}

; Function Attrs: inlinehint nounwind uwtable
define internal i32 @Gia_ObjFanin0Copy(ptr noundef %0) #2 {
  %2 = alloca ptr, align 8
  store ptr %0, ptr %2, align 8, !tbaa !12
  %3 = load ptr, ptr %2, align 8, !tbaa !12
  %4 = call ptr @Gia_ObjFanin0(ptr noundef %3)
  %5 = getelementptr inbounds nuw %struct.Gia_Obj_t_, ptr %4, i32 0, i32 1
  %6 = load i32, ptr %5, align 4, !tbaa !14
  %7 = load ptr, ptr %2, align 8, !tbaa !12
  %8 = call i32 @Gia_ObjFaninC0(ptr noundef %7)
  %9 = call i32 @Abc_LitNotCond(i32 noundef %6, i32 noundef %8)
  ret i32 %9
}

; Function Attrs: inlinehint nounwind uwtable
define internal i32 @Gia_ObjIsAnd(ptr noundef %0) #2 {
  %2 = alloca ptr, align 8
  store ptr %0, ptr %2, align 8, !tbaa !12
  %3 = load ptr, ptr %2, align 8, !tbaa !12
  %4 = load i64, ptr %3, align 4
  %5 = lshr i64 %4, 31
  %6 = and i64 %5, 1
  %7 = trunc i64 %6 to i32
  %8 = icmp ne i32 %7, 0
  br i1 %8, label %15, label %9

9:                                                ; preds = %1
  %10 = load ptr, ptr %2, align 8, !tbaa !12
  %11 = load i64, ptr %10, align 4
  %12 = and i64 %11, 536870911
  %13 = trunc i64 %12 to i32
  %14 = icmp ne i32 %13, 536870911
  br label %15

15:                                               ; preds = %9, %1
  %16 = phi i1 [ false, %1 ], [ %14, %9 ]
  %17 = zext i1 %16 to i32
  ret i32 %17
}

; Function Attrs: inlinehint nounwind uwtable
define internal ptr @Gia_ManObj(ptr noundef %0, i32 noundef %1) #2 {
  %3 = alloca ptr, align 8
  %4 = alloca i32, align 4
  store ptr %0, ptr %3, align 8, !tbaa !3
  store i32 %1, ptr %4, align 4, !tbaa !10
  %5 = load ptr, ptr %3, align 8, !tbaa !3
  %6 = getelementptr inbounds nuw %struct.Gia_Man_t_, ptr %5, i32 0, i32 6
  %7 = load ptr, ptr %6, align 8, !tbaa !19
  %8 = load i32, ptr %4, align 4, !tbaa !10
  %9 = sext i32 %8 to i64
  %10 = getelementptr inbounds %struct.Gia_Obj_t_, ptr %7, i64 %9
  ret ptr %10
}

; Function Attrs: inlinehint nounwind uwtable
define internal ptr @Gia_ManConst0(ptr noundef %0) #2 {
  %2 = alloca ptr, align 8
  store ptr %0, ptr %2, align 8, !tbaa !3
  %3 = load ptr, ptr %2, align 8, !tbaa !3
  %4 = getelementptr inbounds nuw %struct.Gia_Man_t_, ptr %3, i32 0, i32 6
  %5 = load ptr, ptr %4, align 8, !tbaa !19
  ret ptr %5
}

; Function Attrs: inlinehint nounwind uwtable
define internal ptr @Abc_UtilStrsav(ptr noundef %0) #2 {
  %2 = alloca ptr, align 8
  store ptr %0, ptr %2, align 8, !tbaa !45
  %3 = load ptr, ptr %2, align 8, !tbaa !45
  %4 = icmp ne ptr %3, null
  br i1 %4, label %5, label %13

5:                                                ; preds = %1
  %6 = load ptr, ptr %2, align 8, !tbaa !45
  %7 = call i64 @strlen(ptr noundef %6) #13
  %8 = add i64 %7, 1
  %9 = mul i64 1, %8
  %10 = call noalias ptr @malloc(i64 noundef %9) #14
  %11 = load ptr, ptr %2, align 8, !tbaa !45
  %12 = call ptr @strcpy(ptr noundef %10, ptr noundef %11) #12
  br label %14

13:                                               ; preds = %1
  br label %14

14:                                               ; preds = %13, %5
  %15 = phi ptr [ %12, %5 ], [ null, %13 ]
  ret ptr %15
}

; Function Attrs: inlinehint nounwind uwtable
define internal i32 @Gia_ManObjNum(ptr noundef %0) #2 {
  %2 = alloca ptr, align 8
  store ptr %0, ptr %2, align 8, !tbaa !3
  %3 = load ptr, ptr %2, align 8, !tbaa !3
  %4 = getelementptr inbounds nuw %struct.Gia_Man_t_, ptr %3, i32 0, i32 4
  %5 = load i32, ptr %4, align 8, !tbaa !43
  ret i32 %5
}

; Function Attrs: inlinehint nounwind uwtable
define internal i32 @Vec_IntEntryLast(ptr noundef %0) #2 {
  %2 = alloca ptr, align 8
  store ptr %0, ptr %2, align 8, !tbaa !8
  %3 = load ptr, ptr %2, align 8, !tbaa !8
  %4 = getelementptr inbounds nuw %struct.Vec_Int_t_, ptr %3, i32 0, i32 2
  %5 = load ptr, ptr %4, align 8, !tbaa !37
  %6 = load ptr, ptr %2, align 8, !tbaa !8
  %7 = getelementptr inbounds nuw %struct.Vec_Int_t_, ptr %6, i32 0, i32 1
  %8 = load i32, ptr %7, align 4, !tbaa !38
  %9 = sub nsw i32 %8, 1
  %10 = sext i32 %9 to i64
  %11 = getelementptr inbounds i32, ptr %5, i64 %10
  %12 = load i32, ptr %11, align 4, !tbaa !10
  ret i32 %12
}

; Function Attrs: nounwind uwtable
define ptr @Gia_ManFalseRebuildPath(ptr noundef %0, ptr noundef %1, i32 noundef %2, i32 noundef %3) #0 {
  %5 = alloca ptr, align 8
  %6 = alloca ptr, align 8
  %7 = alloca i32, align 4
  %8 = alloca i32, align 4
  %9 = alloca ptr, align 8
  %10 = alloca ptr, align 8
  %11 = alloca ptr, align 8
  %12 = alloca i32, align 4
  %13 = alloca i32, align 4
  store ptr %0, ptr %5, align 8, !tbaa !3
  store ptr %1, ptr %6, align 8, !tbaa !8
  store i32 %2, ptr %7, align 4, !tbaa !10
  store i32 %3, ptr %8, align 4, !tbaa !10
  call void @llvm.lifetime.start.p0(i64 8, ptr %9) #12
  call void @llvm.lifetime.start.p0(i64 8, ptr %10) #12
  call void @llvm.lifetime.start.p0(i64 8, ptr %11) #12
  call void @llvm.lifetime.start.p0(i64 4, ptr %12) #12
  call void @llvm.lifetime.start.p0(i64 4, ptr %13) #12
  %14 = load ptr, ptr %6, align 8, !tbaa !8
  %15 = call i32 @Vec_IntEntryLast(ptr noundef %14)
  store i32 %15, ptr %13, align 4, !tbaa !10
  %16 = load ptr, ptr %5, align 8, !tbaa !3
  %17 = call i32 @Gia_ManObjNum(ptr noundef %16)
  %18 = mul nsw i32 4, %17
  %19 = sdiv i32 %18, 3
  %20 = call ptr @Gia_ManStart(i32 noundef %19)
  store ptr %20, ptr %9, align 8, !tbaa !3
  %21 = load ptr, ptr %5, align 8, !tbaa !3
  %22 = getelementptr inbounds nuw %struct.Gia_Man_t_, ptr %21, i32 0, i32 0
  %23 = load ptr, ptr %22, align 8, !tbaa !41
  %24 = call ptr @Abc_UtilStrsav(ptr noundef %23)
  %25 = load ptr, ptr %9, align 8, !tbaa !3
  %26 = getelementptr inbounds nuw %struct.Gia_Man_t_, ptr %25, i32 0, i32 0
  store ptr %24, ptr %26, align 8, !tbaa !41
  %27 = load ptr, ptr %5, align 8, !tbaa !3
  %28 = getelementptr inbounds nuw %struct.Gia_Man_t_, ptr %27, i32 0, i32 1
  %29 = load ptr, ptr %28, align 8, !tbaa !42
  %30 = call ptr @Abc_UtilStrsav(ptr noundef %29)
  %31 = load ptr, ptr %9, align 8, !tbaa !3
  %32 = getelementptr inbounds nuw %struct.Gia_Man_t_, ptr %31, i32 0, i32 1
  store ptr %30, ptr %32, align 8, !tbaa !42
  %33 = load ptr, ptr %5, align 8, !tbaa !3
  call void @Gia_ManFillValue(ptr noundef %33)
  %34 = load ptr, ptr %5, align 8, !tbaa !3
  %35 = call ptr @Gia_ManConst0(ptr noundef %34)
  %36 = getelementptr inbounds nuw %struct.Gia_Obj_t_, ptr %35, i32 0, i32 1
  store i32 0, ptr %36, align 4, !tbaa !14
  %37 = load ptr, ptr %9, align 8, !tbaa !3
  call void @Gia_ManHashAlloc(ptr noundef %37)
  store i32 1, ptr %12, align 4, !tbaa !10
  br label %38

38:                                               ; preds = %98, %4
  %39 = load i32, ptr %12, align 4, !tbaa !10
  %40 = load ptr, ptr %5, align 8, !tbaa !3
  %41 = getelementptr inbounds nuw %struct.Gia_Man_t_, ptr %40, i32 0, i32 4
  %42 = load i32, ptr %41, align 8, !tbaa !43
  %43 = icmp slt i32 %39, %42
  br i1 %43, label %44, label %49

44:                                               ; preds = %38
  %45 = load ptr, ptr %5, align 8, !tbaa !3
  %46 = load i32, ptr %12, align 4, !tbaa !10
  %47 = call ptr @Gia_ManObj(ptr noundef %45, i32 noundef %46)
  store ptr %47, ptr %11, align 8, !tbaa !12
  %48 = icmp ne ptr %47, null
  br label %49

49:                                               ; preds = %44, %38
  %50 = phi i1 [ false, %38 ], [ %48, %44 ]
  br i1 %50, label %51, label %101

51:                                               ; preds = %49
  %52 = load ptr, ptr %11, align 8, !tbaa !12
  %53 = call i32 @Gia_ObjIsAnd(ptr noundef %52)
  %54 = icmp ne i32 %53, 0
  br i1 %54, label %55, label %75

55:                                               ; preds = %51
  %56 = load i32, ptr %13, align 4, !tbaa !10
  %57 = load i32, ptr %12, align 4, !tbaa !10
  %58 = icmp eq i32 %56, %57
  br i1 %58, label %59, label %65

59:                                               ; preds = %55
  %60 = load ptr, ptr %9, align 8, !tbaa !3
  %61 = load ptr, ptr %5, align 8, !tbaa !3
  %62 = load ptr, ptr %6, align 8, !tbaa !8
  %63 = load i32, ptr %7, align 4, !tbaa !10
  %64 = load i32, ptr %8, align 4, !tbaa !10
  call void @Gia_ManFalseRebuildOne(ptr noundef %60, ptr noundef %61, ptr noundef %62, i32 noundef %63, i32 noundef %64)
  br label %74

65:                                               ; preds = %55
  %66 = load ptr, ptr %9, align 8, !tbaa !3
  %67 = load ptr, ptr %11, align 8, !tbaa !12
  %68 = call i32 @Gia_ObjFanin0Copy(ptr noundef %67)
  %69 = load ptr, ptr %11, align 8, !tbaa !12
  %70 = call i32 @Gia_ObjFanin1Copy(ptr noundef %69)
  %71 = call i32 @Gia_ManHashAnd(ptr noundef %66, i32 noundef %68, i32 noundef %70)
  %72 = load ptr, ptr %11, align 8, !tbaa !12
  %73 = getelementptr inbounds nuw %struct.Gia_Obj_t_, ptr %72, i32 0, i32 1
  store i32 %71, ptr %73, align 4, !tbaa !14
  br label %74

74:                                               ; preds = %65, %59
  br label %97

75:                                               ; preds = %51
  %76 = load ptr, ptr %11, align 8, !tbaa !12
  %77 = call i32 @Gia_ObjIsCi(ptr noundef %76)
  %78 = icmp ne i32 %77, 0
  br i1 %78, label %79, label %84

79:                                               ; preds = %75
  %80 = load ptr, ptr %9, align 8, !tbaa !3
  %81 = call i32 @Gia_ManAppendCi(ptr noundef %80)
  %82 = load ptr, ptr %11, align 8, !tbaa !12
  %83 = getelementptr inbounds nuw %struct.Gia_Obj_t_, ptr %82, i32 0, i32 1
  store i32 %81, ptr %83, align 4, !tbaa !14
  br label %96

84:                                               ; preds = %75
  %85 = load ptr, ptr %11, align 8, !tbaa !12
  %86 = call i32 @Gia_ObjIsCo(ptr noundef %85)
  %87 = icmp ne i32 %86, 0
  br i1 %87, label %88, label %95

88:                                               ; preds = %84
  %89 = load ptr, ptr %9, align 8, !tbaa !3
  %90 = load ptr, ptr %11, align 8, !tbaa !12
  %91 = call i32 @Gia_ObjFanin0Copy(ptr noundef %90)
  %92 = call i32 @Gia_ManAppendCo(ptr noundef %89, i32 noundef %91)
  %93 = load ptr, ptr %11, align 8, !tbaa !12
  %94 = getelementptr inbounds nuw %struct.Gia_Obj_t_, ptr %93, i32 0, i32 1
  store i32 %92, ptr %94, align 4, !tbaa !14
  br label %95

95:                                               ; preds = %88, %84
  br label %96

96:                                               ; preds = %95, %79
  br label %97

97:                                               ; preds = %96, %74
  br label %98

98:                                               ; preds = %97
  %99 = load i32, ptr %12, align 4, !tbaa !10
  %100 = add nsw i32 %99, 1
  store i32 %100, ptr %12, align 4, !tbaa !10
  br label %38, !llvm.loop !101

101:                                              ; preds = %49
  %102 = load ptr, ptr %9, align 8, !tbaa !3
  call void @Gia_ManHashStop(ptr noundef %102)
  %103 = load ptr, ptr %9, align 8, !tbaa !3
  %104 = load ptr, ptr %5, align 8, !tbaa !3
  %105 = call i32 @Gia_ManRegNum(ptr noundef %104)
  call void @Gia_ManSetRegNum(ptr noundef %103, i32 noundef %105)
  %106 = load ptr, ptr %9, align 8, !tbaa !3
  store ptr %106, ptr %10, align 8, !tbaa !3
  %107 = call ptr @Gia_ManCleanup(ptr noundef %106)
  store ptr %107, ptr %9, align 8, !tbaa !3
  %108 = load ptr, ptr %10, align 8, !tbaa !3
  call void @Gia_ManStop(ptr noundef %108)
  %109 = load ptr, ptr %9, align 8, !tbaa !3
  call void @llvm.lifetime.end.p0(i64 4, ptr %13) #12
  call void @llvm.lifetime.end.p0(i64 4, ptr %12) #12
  call void @llvm.lifetime.end.p0(i64 8, ptr %11) #12
  call void @llvm.lifetime.end.p0(i64 8, ptr %10) #12
  call void @llvm.lifetime.end.p0(i64 8, ptr %9) #12
  ret ptr %109
}