; Function Attrs: nounwind uwtable
define ptr @Gia_ManFalseRebuildPath(ptr noundef %0, ptr noundef readonly captures(none) %1, i32 %2, i32 noundef %3) local_unnamed_addr #0 {
  %5 = getelementptr i8, ptr %1, i64 4
  %.val48 = load i32, ptr %5, align 4, !tbaa !30
  %6 = getelementptr i8, ptr %1, i64 8
  %.val49 = load ptr, ptr %6, align 8, !tbaa !3
  %7 = sext i32 %.val48 to i64
  %8 = getelementptr i32, ptr %.val49, i64 %7
  %9 = getelementptr i8, ptr %8, i64 -4
  %10 = load i32, ptr %9, align 4, !tbaa !10
  %11 = getelementptr i8, ptr %0, i64 24
  %.val42 = load i32, ptr %11, align 8, !tbaa !39
  %12 = shl nsw i32 %.val42, 2
  %13 = sdiv i32 %12, 3
  %14 = tail call ptr @Gia_ManStart(i32 noundef %13) #17
  %15 = load ptr, ptr %0, align 8, !tbaa !40
  %.not.i = icmp eq ptr %15, null
  br i1 %.not.i, label %Abc_UtilStrsav.exit, label %16

16:                                               ; preds = %4
  %17 = tail call i64 @strlen(ptr noundef nonnull readonly dereferenceable(1) %15) #20
  %18 = add i64 %17, 1
  %19 = tail call noalias ptr @malloc(i64 noundef %18) #19
  %20 = tail call ptr @strcpy(ptr noundef nonnull dereferenceable(1) %19, ptr noundef nonnull readonly dereferenceable(1) %15) #17
  br label %Abc_UtilStrsav.exit

Abc_UtilStrsav.exit:                              ; preds = %4, %16
  %21 = phi ptr [ %19, %16 ], [ null, %4 ]
  store ptr %21, ptr %14, align 8, !tbaa !40
  %22 = getelementptr inbounds nuw i8, ptr %0, i64 8
  %23 = load ptr, ptr %22, align 8, !tbaa !41
  %.not.i50 = icmp eq ptr %23, null
  br i1 %.not.i50, label %Abc_UtilStrsav.exit51, label %24

24:                                               ; preds = %Abc_UtilStrsav.exit
  %25 = tail call i64 @strlen(ptr noundef nonnull readonly dereferenceable(1) %23) #20
  %26 = add i64 %25, 1
  %27 = tail call noalias ptr @malloc(i64 noundef %26) #19
  %28 = tail call ptr @strcpy(ptr noundef nonnull dereferenceable(1) %27, ptr noundef nonnull readonly dereferenceable(1) %23) #17
  br label %Abc_UtilStrsav.exit51

Abc_UtilStrsav.exit51:                            ; preds = %Abc_UtilStrsav.exit, %24
  %29 = phi ptr [ %27, %24 ], [ null, %Abc_UtilStrsav.exit ]
  %30 = getelementptr inbounds nuw i8, ptr %14, i64 8
  store ptr %29, ptr %30, align 8, !tbaa !41
  tail call void @Gia_ManFillValue(ptr noundef nonnull %0) #17
  %31 = getelementptr i8, ptr %0, i64 32
  %.val43 = load ptr, ptr %31, align 8, !tbaa !11
  %32 = getelementptr inbounds nuw i8, ptr %.val43, i64 8
  store i32 0, ptr %32, align 4, !tbaa !31
  tail call void @Gia_ManHashAlloc(ptr noundef nonnull %14) #17
  %33 = load i32, ptr %11, align 8, !tbaa !39
  %34 = icmp sgt i32 %33, 1
  br i1 %34, label %.lr.ph.preheader, label %.critedge

.lr.ph.preheader:                                 ; preds = %Abc_UtilStrsav.exit51
  %35 = zext i32 %10 to i64
  br label %.lr.ph

.lr.ph:                                           ; preds = %.lr.ph.preheader, %78
  %indvars.iv = phi i64 [ 1, %.lr.ph.preheader ], [ %indvars.iv.next, %78 ]
  %.val = load ptr, ptr %31, align 8, !tbaa !11
  %36 = getelementptr inbounds nuw %struct.Gia_Obj_t_, ptr %.val, i64 %indvars.iv
  %.val44 = load i64, ptr %36, align 4
  %37 = and i64 %.val44, 2147483648
  %.not.i52 = icmp eq i64 %37, 0
  %38 = and i64 %.val44, 536870911
  %39 = icmp ne i64 %38, 536870911
  %narrow.i = and i1 %.not.i52, %39
  br i1 %narrow.i, label %40, label %62

40:                                               ; preds = %.lr.ph
  %41 = icmp eq i64 %indvars.iv, %35
  br i1 %41, label %42, label %43

42:                                               ; preds = %40
  tail call void @Gia_ManFalseRebuildOne(ptr noundef nonnull %14, ptr noundef nonnull %0, ptr noundef %1, i32 poison, i32 noundef %3)
  br label %78

43:                                               ; preds = %40
  %44 = sub nsw i64 0, %38
  %45 = getelementptr inbounds %struct.Gia_Obj_t_, ptr %36, i64 %44, i32 1
  %46 = load i32, ptr %45, align 4, !tbaa !31
  %47 = trunc i64 %.val44 to i32
  %48 = lshr i32 %47, 29
  %49 = and i32 %48, 1
  %50 = xor i32 %46, %49
  %51 = lshr i64 %.val44, 32
  %52 = and i64 %51, 536870911
  %53 = sub nsw i64 0, %52
  %54 = getelementptr inbounds %struct.Gia_Obj_t_, ptr %36, i64 %53, i32 1
  %55 = load i32, ptr %54, align 4, !tbaa !31
  %56 = lshr i64 %.val44, 61
  %57 = trunc nuw nsw i64 %56 to i32
  %58 = and i32 %57, 1
  %59 = xor i32 %55, %58
  %60 = tail call i32 @Gia_ManHashAnd(ptr noundef nonnull %14, i32 noundef %50, i32 noundef %59) #17
  %61 = getelementptr inbounds nuw i8, ptr %36, i64 8
  store i32 %60, ptr %61, align 4, !tbaa !31
  br label %78

62:                                               ; preds = %.lr.ph
  %63 = and i64 %.val44, 2684354559
  %narrow.i53.not = icmp eq i64 %63, 2684354559
  br i1 %narrow.i53.not, label %64, label %67

64:                                               ; preds = %62
  %65 = tail call fastcc i32 @Gia_ManAppendCi(ptr noundef nonnull %14)
  %66 = getelementptr inbounds nuw i8, ptr %36, i64 8
  store i32 %65, ptr %66, align 4, !tbaa !31
  br label %78

67:                                               ; preds = %62
  %.not.i54 = icmp ne i64 %37, 0
  %narrow.i55 = and i1 %.not.i54, %39
  br i1 %narrow.i55, label %68, label %78

68:                                               ; preds = %67
  %69 = sub nsw i64 0, %38
  %70 = getelementptr inbounds %struct.Gia_Obj_t_, ptr %36, i64 %69, i32 1
  %71 = load i32, ptr %70, align 4, !tbaa !31
  %72 = trunc i64 %.val44 to i32
  %73 = lshr i32 %72, 29
  %74 = and i32 %73, 1
  %75 = xor i32 %71, %74
  %76 = tail call fastcc i32 @Gia_ManAppendCo(ptr noundef nonnull %14, i32 noundef %75)
  %77 = getelementptr inbounds nuw i8, ptr %36, i64 8
  store i32 %76, ptr %77, align 4, !tbaa !31
  br label %78

78:                                               ; preds = %43, %42, %67, %68, %64
  %indvars.iv.next = add nuw nsw i64 %indvars.iv, 1
  %79 = load i32, ptr %11, align 8, !tbaa !39
  %80 = sext i32 %79 to i64
  %81 = icmp slt i64 %indvars.iv.next, %80
  br i1 %81, label %.lr.ph, label %.critedge, !llvm.loop !96

.critedge:                                        ; preds = %78, %Abc_UtilStrsav.exit51
  tail call void @Gia_ManHashStop(ptr noundef nonnull %14) #17
  %82 = getelementptr i8, ptr %0, i64 16
  %.val47 = load i32, ptr %82, align 8, !tbaa !45
  tail call void @Gia_ManSetRegNum(ptr noundef nonnull %14, i32 noundef %.val47) #17
  %83 = tail call ptr @Gia_ManCleanup(ptr noundef nonnull %14) #17
  tail call void @Gia_ManStop(ptr noundef nonnull %14) #17
  ret ptr %83
}